target datalayout = "e-m:e-p270:32:32-p271:32:32-p272:64:64-i64:64-i128:128-f80:128-n8:16:32:64-S128"
target triple = "x86_64-pc-linux-gnu"

%struct._value_string_ext = type { ptr, i32, i32, ptr, ptr }
%struct._packet_info = type { ptr, ptr, i32, i32, %struct.nstime_t, %struct.nstime_t, %struct.nstime_t, i8, ptr, ptr, ptr, ptr, %struct._address, %struct._address, %struct._address, %struct._address, %struct._address, %struct._address, i32, ptr, i8, [3 x i8], %struct.anon, i32, i32, i32, i32, ptr, i8, ptr, ptr, i16, i16, i32, i32, i16, i32, i32, ptr, ptr, ptr, i8, i8, i16, i16, i16, i32, i16, i16, ptr, ptr, ptr, ptr, ptr, i32, i32 }
%struct.nstime_t = type { i64, i32 }
%struct._address = type { i32, i32, ptr, ptr }
%struct.anon = type { i8, [3 x i8] }
%struct._urb_info_t = type { i16, i16, i8, i32, i8, i32, i8, i8, i8, i32, ptr, ptr }
%struct._usb_conv_info_t = type { i8, i16, i16, i16, i16, i8, i16, i32, i16, i8, ptr, ptr, i32, ptr }
%struct._video_conv_info_t = type { ptr }
%struct.video_entity_t = type { i8, i8, i16 }

@hf_usb_vid_request_error = internal global i32 0, align 4
@hf_usb_vid_control_selector = internal global i32 0, align 4
@hf_usb_vid_control_info = internal global i32 0, align 4
@hf_usb_vid_interrupt_bStatusType = internal global i32 0, align 4
@hf_usb_vid_interrupt_bAttribute = internal global i32 0, align 4
@hf_usb_vid_interrupt_bOriginator = internal global i32 0, align 4
@hf_usb_vid_control_interrupt_bEvent = internal global i32 0, align 4
@hf_usb_vid_value_data = internal global i32 0, align 4
@ett_control_capabilities = internal global i32 0, align 4
@.str.409 = private unnamed_addr constant [9 x i8] c"USBVIDEO\00", align 1
@.str.442 = private unnamed_addr constant [8 x i8] c"Unknown\00", align 1
@.str.557 = private unnamed_addr constant [12 x i8] c"%s (0x%02x)\00", align 1
@cs_control_interface_ext = internal global %struct._value_string_ext { ptr @_try_val_to_str_ext_init, i32 0, i32 4, ptr @cs_control_interface, ptr @.str.558 }, align 8
@cs_streaming_interface_ext = internal global %struct._value_string_ext { ptr @_try_val_to_str_ext_init, i32 0, i32 10, ptr @cs_streaming_interface, ptr @.str.562 }, align 8
@cs_camera_terminal_ext = internal global %struct._value_string_ext { ptr @_try_val_to_str_ext_init, i32 0, i32 21, ptr @cs_camera_terminal, ptr @.str.571 }, align 8
@cs_processing_unit_ext = internal global %struct._value_string_ext { ptr @_try_val_to_str_ext_init, i32 0, i32 20, ptr @cs_processing_unit, ptr @.str.576 }, align 8
@cs_selector_unit_ext = internal global %struct._value_string_ext { ptr @_try_val_to_str_ext_init, i32 0, i32 2, ptr @cs_selector_unit, ptr @.str.584 }, align 8

; Function Attrs: null_pointer_is_valid sspstrong uwtable
define internal ptr @get_control_selector_values(i8 noundef zeroext %0, ptr noundef %1) #0 {
  %3 = alloca ptr, align 8
  %4 = alloca i8, align 1
  %5 = alloca ptr, align 8
  %6 = alloca ptr, align 8
  %7 = alloca ptr, align 8
  %8 = alloca ptr, align 8
  %9 = alloca i32, align 4
  store i8 %0, ptr %4, align 1
  store ptr %1, ptr %5, align 8
  call void @llvm.lifetime.start.p0(i64 8, ptr %6) #6
  call void @llvm.lifetime.start.p0(i64 8, ptr %7) #6
  store ptr null, ptr %7, align 8
  call void @llvm.lifetime.start.p0(i64 8, ptr %8) #6
  store ptr null, ptr %8, align 8
  %10 = load ptr, ptr %5, align 8
  %11 = icmp eq ptr %10, null
  br i1 %11, label %17, label %12

12:                                               ; preds = %2
  %13 = load ptr, ptr %5, align 8
  %14 = getelementptr inbounds nuw %struct._usb_conv_info_t, ptr %13, i32 0, i32 12
  %15 = load i32, ptr %14, align 8
  %16 = icmp ne i32 %15, 3
  br i1 %16, label %17, label %18

17:                                               ; preds = %12, %2
  store ptr null, ptr %3, align 8
  store i32 1, ptr %9, align 4
  br label %67

18:                                               ; preds = %12
  %19 = load ptr, ptr %5, align 8
  %20 = getelementptr inbounds nuw %struct._usb_conv_info_t, ptr %19, i32 0, i32 11
  %21 = load ptr, ptr %20, align 8
  store ptr %21, ptr %6, align 8
  %22 = load ptr, ptr %6, align 8
  %23 = icmp ne ptr %22, null
  br i1 %23, label %24, label %31

24:                                               ; preds = %18
  %25 = load ptr, ptr %6, align 8
  %26 = getelementptr inbounds nuw %struct._video_conv_info_t, ptr %25, i32 0, i32 0
  %27 = load ptr, ptr %26, align 8
  %28 = load i8, ptr %4, align 1
  %29 = zext i8 %28 to i32
  %30 = call ptr @wmem_tree_lookup32(ptr noundef %27, i32 noundef %29)
  store ptr %30, ptr %7, align 8
  br label %31

31:                                               ; preds = %24, %18
  %32 = load i8, ptr %4, align 1
  %33 = zext i8 %32 to i32
  %34 = icmp eq i32 %33, 0
  br i1 %34, label %35, label %44

35:                                               ; preds = %31
  %36 = load ptr, ptr %5, align 8
  %37 = getelementptr inbounds nuw %struct._usb_conv_info_t, ptr %36, i32 0, i32 3
  %38 = load i16, ptr %37, align 2
  %39 = zext i16 %38 to i32
  switch i32 %39, label %42 [
    i32 1, label %40
    i32 2, label %41
  ]

40:                                               ; preds = %35
  store ptr @cs_control_interface_ext, ptr %8, align 8
  br label %43

41:                                               ; preds = %35
  store ptr @cs_streaming_interface_ext, ptr %8, align 8
  br label %43

42:                                               ; preds = %35
  br label %43

43:                                               ; preds = %42, %41, %40
  br label %65

44:                                               ; preds = %31
  %45 = load ptr, ptr %7, align 8
  %46 = icmp ne ptr %45, null
  br i1 %46, label %47, label %64

47:                                               ; preds = %44
  %48 = load ptr, ptr %7, align 8
  %49 = getelementptr inbounds nuw %struct.video_entity_t, ptr %48, i32 0, i32 1
  %50 = load i8, ptr %49, align 1
  %51 = zext i8 %50 to i32
  switch i32 %51, label %62 [
    i32 2, label %52
    i32 5, label %60
    i32 4, label %61
  ]

52:                                               ; preds = %47
  %53 = load ptr, ptr %7, align 8
  %54 = getelementptr inbounds nuw %struct.video_entity_t, ptr %53, i32 0, i32 2
  %55 = load i16, ptr %54, align 2
  %56 = zext i16 %55 to i32
  %57 = icmp eq i32 %56, 513
  br i1 %57, label %58, label %59

58:                                               ; preds = %52
  store ptr @cs_camera_terminal_ext, ptr %8, align 8
  br label %59

59:                                               ; preds = %58, %52
  br label %63

60:                                               ; preds = %47
  store ptr @cs_processing_unit_ext, ptr %8, align 8
  br label %63

61:                                               ; preds = %47
  store ptr @cs_selector_unit_ext, ptr %8, align 8
  br label %63

62:                                               ; preds = %47
  br label %63

63:                                               ; preds = %62, %61, %60, %59
  br label %64

64:                                               ; preds = %63, %44
  br label %65

65:                                               ; preds = %64, %43
  %66 = load ptr, ptr %8, align 8
  store ptr %66, ptr %3, align 8
  store i32 1, ptr %9, align 4
  br label %67

67:                                               ; preds = %65, %17
  call void @llvm.lifetime.end.p0(i64 8, ptr %8) #6
  call void @llvm.lifetime.end.p0(i64 8, ptr %7) #6
  call void @llvm.lifetime.end.p0(i64 8, ptr %6) #6
  %68 = load ptr, ptr %3, align 8
  ret ptr %68
}

; Function Attrs: null_pointer_is_valid sspstrong uwtable
define internal i32 @dissect_usb_vid_control_info(ptr noundef %0, ptr noundef %1, i32 noundef %2) #0 {
  %4 = alloca ptr, align 8
  %5 = alloca ptr, align 8
  %6 = alloca i32, align 4
  store ptr %0, ptr %4, align 8
  store ptr %1, ptr %5, align 8
  store i32 %2, ptr %6, align 4
  %7 = load ptr, ptr %4, align 8
  %8 = load ptr, ptr %5, align 8
  %9 = load i32, ptr %6, align 4
  %10 = load i32, ptr @hf_usb_vid_control_info, align 4
  %11 = load i32, ptr @ett_control_capabilities, align 4
  %12 = call ptr @proto_tree_add_bitmask(ptr noundef %7, ptr noundef %8, i32 noundef %9, i32 noundef %10, i32 noundef %11, ptr noundef @dissect_usb_vid_control_info.capability_bits, i32 noundef 0)
  %13 = load i32, ptr %6, align 4
  %14 = add i32 %13, 1
  ret i32 %14
}

; Function Attrs: null_pointer_is_valid sspstrong uwtable
define internal ptr @get_control_selector_name(i8 noundef zeroext %0, i8 noundef zeroext %1, ptr noundef %2) #0 {
  %4 = alloca i8, align 1
  %5 = alloca i8, align 1
  %6 = alloca ptr, align 8
  %7 = alloca ptr, align 8
  %8 = alloca ptr, align 8
  store i8 %0, ptr %4, align 1
  store i8 %1, ptr %5, align 1
  store ptr %2, ptr %6, align 8
  call void @llvm.lifetime.start.p0(i64 8, ptr %7) #6
  store ptr null, ptr %7, align 8
  call void @llvm.lifetime.start.p0(i64 8, ptr %8) #6
  store ptr null, ptr %8, align 8
  %9 = load i8, ptr %4, align 1
  %10 = load ptr, ptr %6, align 8
  %11 = call ptr @get_control_selector_values(i8 noundef zeroext %9, ptr noundef %10)
  store ptr %11, ptr %8, align 8
  %12 = load ptr, ptr %8, align 8
  %13 = icmp ne ptr %12, null
  br i1 %13, label %14, label %19

14:                                               ; preds = %3
  %15 = load i8, ptr %5, align 1
  %16 = zext i8 %15 to i32
  %17 = load ptr, ptr %8, align 8
  %18 = call ptr @try_val_to_str_ext(i32 noundef %16, ptr noundef %17)
  store ptr %18, ptr %7, align 8
  br label %19

19:                                               ; preds = %14, %3
  %20 = load ptr, ptr %7, align 8
  call void @llvm.lifetime.end.p0(i64 8, ptr %8) #6
  call void @llvm.lifetime.end.p0(i64 8, ptr %7) #6
  ret ptr %20
}

; Function Attrs: null_pointer_is_valid sspstrong uwtable
define internal i32 @dissect_usb_vid_interrupt(ptr noundef %0, ptr noundef %1, ptr noundef %2, ptr noundef %3) #0 {
  %5 = alloca ptr, align 8
  %6 = alloca ptr, align 8
  %7 = alloca ptr, align 8
  %8 = alloca ptr, align 8
  %9 = alloca ptr, align 8
  %10 = alloca i32, align 4
  %11 = alloca i32, align 4
  %12 = alloca i8, align 1
  %13 = alloca i8, align 1
  %14 = alloca i8, align 1
  %15 = alloca i8, align 1
  %16 = alloca ptr, align 8
  store ptr %0, ptr %5, align 8
  store ptr %1, ptr %6, align 8
  store ptr %2, ptr %7, align 8
  store ptr %3, ptr %8, align 8
  call void @llvm.lifetime.start.p0(i64 8, ptr %9) #6
  call void @llvm.lifetime.start.p0(i64 4, ptr %10) #6
  call void @llvm.lifetime.start.p0(i64 4, ptr %11) #6
  store i32 0, ptr %11, align 4
  %17 = load ptr, ptr %8, align 8
  store ptr %17, ptr %9, align 8
  %18 = load ptr, ptr %5, align 8
  %19 = load i32, ptr %11, align 4
  %20 = call i32 @tvb_reported_length_remaining(ptr noundef %18, i32 noundef %19)
  store i32 %20, ptr %10, align 4
  %21 = load ptr, ptr %6, align 8
  %22 = getelementptr inbounds nuw %struct._packet_info, ptr %21, i32 0, i32 1
  %23 = load ptr, ptr %22, align 8
  call void @col_set_str(ptr noundef %23, i32 noundef 35, ptr noundef @.str.409)
  %24 = load i32, ptr %10, align 4
  %25 = icmp sgt i32 %24, 0
  br i1 %25, label %26, label %140

26:                                               ; preds = %4
  call void @llvm.lifetime.start.p0(i64 1, ptr %12) #6
  call void @llvm.lifetime.start.p0(i64 1, ptr %13) #6
  %27 = load ptr, ptr %5, align 8
  %28 = load i32, ptr %11, align 4
  %29 = call zeroext i8 @tvb_get_uint8(ptr noundef %27, i32 noundef %28)
  %30 = zext i8 %29 to i32
  %31 = and i32 %30, 15
  %32 = trunc i32 %31 to i8
  store i8 %32, ptr %12, align 1
  %33 = load ptr, ptr %7, align 8
  %34 = load i32, ptr @hf_usb_vid_interrupt_bStatusType, align 4
  %35 = load ptr, ptr %5, align 8
  %36 = load i32, ptr %11, align 4
  %37 = call ptr @proto_tree_add_item(ptr noundef %33, i32 noundef %34, ptr noundef %35, i32 noundef %36, i32 noundef 1, i32 noundef -2147483648)
  %38 = load i32, ptr %11, align 4
  %39 = add i32 %38, 1
  store i32 %39, ptr %11, align 4
  %40 = load ptr, ptr %5, align 8
  %41 = load i32, ptr %11, align 4
  %42 = call zeroext i8 @tvb_get_uint8(ptr noundef %40, i32 noundef %41)
  store i8 %42, ptr %13, align 1
  %43 = load ptr, ptr %7, align 8
  %44 = load i32, ptr @hf_usb_vid_interrupt_bOriginator, align 4
  %45 = load ptr, ptr %5, align 8
  %46 = load i32, ptr %11, align 4
  %47 = call ptr @proto_tree_add_item(ptr noundef %43, i32 noundef %44, ptr noundef %45, i32 noundef %46, i32 noundef 1, i32 noundef -2147483648)
  %48 = load i32, ptr %11, align 4
  %49 = add i32 %48, 1
  store i32 %49, ptr %11, align 4
  %50 = load i8, ptr %12, align 1
  %51 = zext i8 %50 to i32
  %52 = icmp eq i32 %51, 1
  br i1 %52, label %53, label %133

53:                                               ; preds = %26
  call void @llvm.lifetime.start.p0(i64 1, ptr %14) #6
  call void @llvm.lifetime.start.p0(i64 1, ptr %15) #6
  call void @llvm.lifetime.start.p0(i64 8, ptr %16) #6
  %54 = load ptr, ptr %7, align 8
  %55 = load i32, ptr @hf_usb_vid_control_interrupt_bEvent, align 4
  %56 = load ptr, ptr %5, align 8
  %57 = load i32, ptr %11, align 4
  %58 = call ptr @proto_tree_add_item(ptr noundef %54, i32 noundef %55, ptr noundef %56, i32 noundef %57, i32 noundef 1, i32 noundef -2147483648)
  %59 = load i32, ptr %11, align 4
  %60 = add i32 %59, 1
  store i32 %60, ptr %11, align 4
  %61 = load ptr, ptr %5, align 8
  %62 = load i32, ptr %11, align 4
  %63 = call zeroext i8 @tvb_get_uint8(ptr noundef %61, i32 noundef %62)
  store i8 %63, ptr %14, align 1
  %64 = load i8, ptr %13, align 1
  %65 = load i8, ptr %14, align 1
  %66 = load ptr, ptr %9, align 8
  %67 = getelementptr inbounds nuw %struct._urb_info_t, ptr %66, i32 0, i32 11
  %68 = load ptr, ptr %67, align 8
  %69 = call ptr @get_control_selector_name(i8 noundef zeroext %64, i8 noundef zeroext %65, ptr noundef %68)
  store ptr %69, ptr %16, align 8
  %70 = load ptr, ptr %16, align 8
  %71 = icmp ne ptr %70, null
  br i1 %71, label %73, label %72

72:                                               ; preds = %53
  store ptr @.str.442, ptr %16, align 8
  br label %73

73:                                               ; preds = %72, %53
  %74 = load ptr, ptr %7, align 8
  %75 = load i32, ptr @hf_usb_vid_control_selector, align 4
  %76 = load ptr, ptr %5, align 8
  %77 = load i32, ptr %11, align 4
  %78 = load i8, ptr %14, align 1
  %79 = zext i8 %78 to i32
  %80 = load ptr, ptr %16, align 8
  %81 = load i8, ptr %14, align 1
  %82 = zext i8 %81 to i32
  %83 = call ptr (ptr, i32, ptr, i32, i32, i32, ptr, ...) @proto_tree_add_uint_format_value(ptr noundef %74, i32 noundef %75, ptr noundef %76, i32 noundef %77, i32 noundef 1, i32 noundef %79, ptr noundef @.str.557, ptr noundef %80, i32 noundef %82)
  %84 = load i32, ptr %11, align 4
  %85 = add i32 %84, 1
  store i32 %85, ptr %11, align 4
  %86 = load ptr, ptr %5, align 8
  %87 = load i32, ptr %11, align 4
  %88 = call zeroext i8 @tvb_get_uint8(ptr noundef %86, i32 noundef %87)
  store i8 %88, ptr %15, align 1
  %89 = load ptr, ptr %7, align 8
  %90 = load i32, ptr @hf_usb_vid_interrupt_bAttribute, align 4
  %91 = load ptr, ptr %5, align 8
  %92 = load i32, ptr %11, align 4
  %93 = call ptr @proto_tree_add_item(ptr noundef %89, i32 noundef %90, ptr noundef %91, i32 noundef %92, i32 noundef 1, i32 noundef -2147483648)
  %94 = load i32, ptr %11, align 4
  %95 = add i32 %94, 1
  store i32 %95, ptr %11, align 4
  %96 = load i8, ptr %15, align 1
  %97 = zext i8 %96 to i32
  switch i32 %97, label %121 [
    i32 2, label %98
    i32 1, label %106
    i32 0, label %111
    i32 3, label %111
    i32 4, label %111
  ]

98:                                               ; preds = %73
  %99 = load ptr, ptr %7, align 8
  %100 = load i32, ptr @hf_usb_vid_request_error, align 4
  %101 = load ptr, ptr %5, align 8
  %102 = load i32, ptr %11, align 4
  %103 = call ptr @proto_tree_add_item(ptr noundef %99, i32 noundef %100, ptr noundef %101, i32 noundef %102, i32 noundef 1, i32 noundef -2147483648)
  %104 = load i32, ptr %11, align 4
  %105 = add i32 %104, 1
  store i32 %105, ptr %11, align 4
  br label %132

106:                                              ; preds = %73
  %107 = load ptr, ptr %7, align 8
  %108 = load ptr, ptr %5, align 8
  %109 = load i32, ptr %11, align 4
  %110 = call i32 @dissect_usb_vid_control_info(ptr noundef %107, ptr noundef %108, i32 noundef %109)
  store i32 %110, ptr %11, align 4
  br label %132

111:                                              ; preds = %73, %73, %73
  %112 = load ptr, ptr %7, align 8
  %113 = load ptr, ptr %5, align 8
  %114 = load i32, ptr %11, align 4
  %115 = load i8, ptr %15, align 1
  call void @dissect_usb_vid_control_value(ptr noundef %112, ptr noundef %113, i32 noundef %114, i8 noundef zeroext %115)
  %116 = load ptr, ptr %5, align 8
  %117 = load i32, ptr %11, align 4
  %118 = call i32 @tvb_reported_length_remaining(ptr noundef %116, i32 noundef %117)
  %119 = load i32, ptr %11, align 4
  %120 = add i32 %119, %118
  store i32 %120, ptr %11, align 4
  br label %132

121:                                              ; preds = %73
  %122 = load ptr, ptr %7, align 8
  %123 = load i32, ptr @hf_usb_vid_value_data, align 4
  %124 = load ptr, ptr %5, align 8
  %125 = load i32, ptr %11, align 4
  %126 = call ptr @proto_tree_add_item(ptr noundef %122, i32 noundef %123, ptr noundef %124, i32 noundef %125, i32 noundef -1, i32 noundef 0)
  %127 = load ptr, ptr %5, align 8
  %128 = load i32, ptr %11, align 4
  %129 = call i32 @tvb_reported_length_remaining(ptr noundef %127, i32 noundef %128)
  %130 = load i32, ptr %11, align 4
  %131 = add i32 %130, %129
  store i32 %131, ptr %11, align 4
  br label %132

132:                                              ; preds = %121, %111, %106, %98
  call void @llvm.lifetime.end.p0(i64 8, ptr %16) #6
  call void @llvm.lifetime.end.p0(i64 1, ptr %15) #6
  call void @llvm.lifetime.end.p0(i64 1, ptr %14) #6
  br label %139

133:                                              ; preds = %26
  %134 = load i8, ptr %12, align 1
  %135 = zext i8 %134 to i32
  %136 = icmp eq i32 %135, 2
  br i1 %136, label %137, label %138

137:                                              ; preds = %133
  br label %138

138:                                              ; preds = %137, %133
  br label %139

139:                                              ; preds = %138, %132
  call void @llvm.lifetime.end.p0(i64 1, ptr %13) #6
  call void @llvm.lifetime.end.p0(i64 1, ptr %12) #6
  br label %141

140:                                              ; preds = %4
  store i32 -2, ptr %11, align 4
  br label %141

141:                                              ; preds = %140, %139
  %142 = load i32, ptr %11, align 4
  call void @llvm.lifetime.end.p0(i64 4, ptr %11) #6
  call void @llvm.lifetime.end.p0(i64 4, ptr %10) #6
  call void @llvm.lifetime.end.p0(i64 8, ptr %9) #6
  ret i32 %142
}