; Function Attrs: null_pointer_is_valid sspstrong uwtable
define internal i32 @dissect_usb_vid_interrupt(ptr noundef %0, ptr noundef readonly captures(none) %1, ptr noundef %2, ptr noundef readonly captures(none) %3) #0 {
  %5 = tail call i32 @tvb_reported_length_remaining(ptr noundef %0, i32 noundef 0)
  %6 = getelementptr inbounds nuw i8, ptr %1, i64 8
  %7 = load ptr, ptr %6, align 8
  tail call void @col_set_str(ptr noundef %7, i32 noundef 35, ptr noundef nonnull @.str.409)
  %8 = icmp sgt i32 %5, 0
  br i1 %8, label %9, label %72

9:                                                ; preds = %4
  %10 = tail call zeroext i8 @tvb_get_uint8(ptr noundef %0, i32 noundef 0)
  %11 = and i8 %10, 15
  %12 = load i32, ptr @hf_usb_vid_interrupt_bStatusType, align 4
  %13 = tail call ptr @proto_tree_add_item(ptr noundef %2, i32 noundef %12, ptr noundef %0, i32 noundef 0, i32 noundef 1, i32 noundef -2147483648)
  %14 = tail call zeroext i8 @tvb_get_uint8(ptr noundef %0, i32 noundef 1)
  %15 = load i32, ptr @hf_usb_vid_interrupt_bOriginator, align 4
  %16 = tail call ptr @proto_tree_add_item(ptr noundef %2, i32 noundef %15, ptr noundef %0, i32 noundef 1, i32 noundef 1, i32 noundef -2147483648)
  %17 = icmp eq i8 %11, 1
  br i1 %17, label %18, label %72

18:                                               ; preds = %9
  %19 = load i32, ptr @hf_usb_vid_control_interrupt_bEvent, align 4
  %20 = tail call ptr @proto_tree_add_item(ptr noundef %2, i32 noundef %19, ptr noundef %0, i32 noundef 2, i32 noundef 1, i32 noundef -2147483648)
  %21 = tail call zeroext i8 @tvb_get_uint8(ptr noundef %0, i32 noundef 3)
  %22 = getelementptr inbounds nuw i8, ptr %3, i64 40
  %23 = load ptr, ptr %22, align 8
  %24 = icmp eq ptr %23, null
  br i1 %24, label %get_control_selector_name.exit, label %25

25:                                               ; preds = %18
  %26 = getelementptr inbounds nuw i8, ptr %23, i64 40
  %27 = load i32, ptr %26, align 8
  %.not.i.i = icmp eq i32 %27, 3
  br i1 %.not.i.i, label %28, label %get_control_selector_name.exit

28:                                               ; preds = %25
  %29 = getelementptr inbounds nuw i8, ptr %23, i64 32
  %30 = load ptr, ptr %29, align 8
  %.not16.i.i = icmp eq ptr %30, null
  br i1 %.not16.i.i, label %.thread.i.i, label %31

31:                                               ; preds = %28
  %32 = load ptr, ptr %30, align 8
  %33 = zext i8 %14 to i32
  %34 = tail call ptr @wmem_tree_lookup32(ptr noundef %32, i32 noundef %33)
  %35 = icmp eq i8 %14, 0
  br i1 %35, label %37, label %40

.thread.i.i:                                      ; preds = %28
  %36 = icmp eq i8 %14, 0
  br i1 %36, label %37, label %get_control_selector_name.exit

37:                                               ; preds = %.thread.i.i, %31
  %38 = getelementptr inbounds nuw i8, ptr %23, i64 6
  %39 = load i16, ptr %38, align 2
  switch i16 %39, label %get_control_selector_name.exit [
    i16 1, label %get_control_selector_values.exit.thread10.i
    i16 2, label %get_control_selector_values.exit.thread10.fold.split.i
  ]

40:                                               ; preds = %31
  %.not17.i.i = icmp eq ptr %34, null
  br i1 %.not17.i.i, label %get_control_selector_name.exit, label %41

41:                                               ; preds = %40
  %42 = getelementptr inbounds nuw i8, ptr %34, i64 1
  %43 = load i8, ptr %42, align 1
  switch i8 %43, label %get_control_selector_name.exit [
    i8 2, label %44
    i8 5, label %get_control_selector_values.exit.thread10.i
    i8 4, label %48
  ]

44:                                               ; preds = %41
  %45 = getelementptr inbounds nuw i8, ptr %34, i64 2
  %46 = load i16, ptr %45, align 2
  %47 = icmp eq i16 %46, 513
  br i1 %47, label %get_control_selector_values.exit.thread10.i, label %get_control_selector_name.exit

48:                                               ; preds = %41
  br label %get_control_selector_values.exit.thread10.i

get_control_selector_values.exit.thread10.fold.split.i: ; preds = %37
  br label %get_control_selector_values.exit.thread10.i

get_control_selector_values.exit.thread10.i:      ; preds = %get_control_selector_values.exit.thread10.fold.split.i, %48, %44, %41, %37
  %.013.i13.i = phi ptr [ @cs_selector_unit_ext, %48 ], [ @cs_processing_unit_ext, %41 ], [ @cs_control_interface_ext, %37 ], [ @cs_camera_terminal_ext, %44 ], [ @cs_streaming_interface_ext, %get_control_selector_values.exit.thread10.fold.split.i ]
  %49 = zext i8 %21 to i32
  %50 = tail call ptr @try_val_to_str_ext(i32 noundef %49, ptr noundef nonnull %.013.i13.i)
  br label %get_control_selector_name.exit

get_control_selector_name.exit:                   ; preds = %18, %25, %.thread.i.i, %37, %40, %41, %44, %get_control_selector_values.exit.thread10.i
  %.0.i = phi ptr [ %50, %get_control_selector_values.exit.thread10.i ], [ null, %25 ], [ null, %18 ], [ null, %41 ], [ null, %40 ], [ null, %44 ], [ null, %.thread.i.i ], [ null, %37 ]
  %.not = icmp eq ptr %.0.i, null
  %spec.store.select = select i1 %.not, ptr @.str.442, ptr %.0.i
  %51 = load i32, ptr @hf_usb_vid_control_selector, align 4
  %52 = zext i8 %21 to i32
  %53 = tail call ptr (ptr, i32, ptr, i32, i32, i32, ptr, ...) @proto_tree_add_uint_format_value(ptr noundef %2, i32 noundef %51, ptr noundef %0, i32 noundef 3, i32 noundef 1, i32 noundef %52, ptr noundef nonnull @.str.557, ptr noundef nonnull %spec.store.select, i32 noundef %52)
  %54 = tail call zeroext i8 @tvb_get_uint8(ptr noundef %0, i32 noundef 4)
  %55 = load i32, ptr @hf_usb_vid_interrupt_bAttribute, align 4
  %56 = tail call ptr @proto_tree_add_item(ptr noundef %2, i32 noundef %55, ptr noundef %0, i32 noundef 4, i32 noundef 1, i32 noundef -2147483648)
  switch i8 %54, label %67 [
    i8 2, label %57
    i8 1, label %60
    i8 0, label %64
    i8 3, label %64
    i8 4, label %64
  ]

57:                                               ; preds = %get_control_selector_name.exit
  %58 = load i32, ptr @hf_usb_vid_request_error, align 4
  %59 = tail call ptr @proto_tree_add_item(ptr noundef %2, i32 noundef %58, ptr noundef %0, i32 noundef 5, i32 noundef 1, i32 noundef -2147483648)
  br label %72

60:                                               ; preds = %get_control_selector_name.exit
  %61 = load i32, ptr @hf_usb_vid_control_info, align 4
  %62 = load i32, ptr @ett_control_capabilities, align 4
  %63 = tail call ptr @proto_tree_add_bitmask(ptr noundef %2, ptr noundef %0, i32 noundef 5, i32 noundef %61, i32 noundef %62, ptr noundef nonnull @dissect_usb_vid_control_info.capability_bits, i32 noundef 0)
  br label %72

64:                                               ; preds = %get_control_selector_name.exit, %get_control_selector_name.exit, %get_control_selector_name.exit
  tail call fastcc void @dissect_usb_vid_control_value(ptr noundef %2, ptr noundef %0, i32 noundef 5, i8 noundef zeroext %54)
  %65 = tail call i32 @tvb_reported_length_remaining(ptr noundef %0, i32 noundef 5)
  %66 = add i32 %65, 5
  br label %72

67:                                               ; preds = %get_control_selector_name.exit
  %68 = load i32, ptr @hf_usb_vid_value_data, align 4
  %69 = tail call ptr @proto_tree_add_item(ptr noundef %2, i32 noundef %68, ptr noundef %0, i32 noundef 5, i32 noundef -1, i32 noundef 0)
  %70 = tail call i32 @tvb_reported_length_remaining(ptr noundef %0, i32 noundef 5)
  %71 = add i32 %70, 5
  br label %72

72:                                               ; preds = %4, %67, %64, %60, %57, %9
  %.2 = phi i32 [ %71, %67 ], [ %66, %64 ], [ 6, %60 ], [ 6, %57 ], [ 2, %9 ], [ -2, %4 ]
  ret i32 %.2
}